; Function Attrs: mustprogress uwtable
define noundef nonnull ptr @_ZN7rocksdb16ColumnFamilyData20ConstructNewMemtableERKNS_16MutableCFOptionsEm(ptr noundef nonnull align 8 dereferenceable(2656) %this, ptr noundef nonnull align 8 dereferenceable(560) %mutable_cf_options, i64 noundef %earliest_seq) local_unnamed_addr #7 align 2 personality ptr @__gxx_personality_v0 {
entry:
  %call = tail call noalias noundef nonnull dereferenceable(3536) ptr @_Znwm(i64 noundef 3536) #33
  %internal_comparator_ = getelementptr inbounds i8, ptr %this, i64 64
  %ioptions_ = getelementptr inbounds i8, ptr %this, i64 928
  %write_buffer_manager_ = getelementptr inbounds i8, ptr %this, i64 2392
  %0 = load ptr, ptr %write_buffer_manager_, align 8
  %1 = load i32, ptr %this, align 8
  invoke void @_ZN7rocksdb8MemTableC1ERKNS_21InternalKeyComparatorERKNS_16ImmutableOptionsERKNS_16MutableCFOptionsEPNS_18WriteBufferManagerEmj(ptr noundef nonnull align 16 dereferenceable(3528) %call, ptr noundef nonnull align 8 dereferenceable(16) %internal_comparator_, ptr noundef nonnull align 8 dereferenceable(857) %ioptions_, ptr noundef nonnull align 8 dereferenceable(560) %mutable_cf_options, ptr noundef %0, i64 noundef %earliest_seq, i32 noundef %1)
          to label %invoke.cont unwind label %lpad

invoke.cont:                                      ; preds = %entry
  ret ptr %call

lpad:                                             ; preds = %entry
  %2 = landingpad { ptr, i32 }
          cleanup
  tail call void @_ZdlPv(ptr noundef nonnull %call) #29
  resume { ptr, i32 } %2
}